; Function Attrs: mustprogress nounwind uwtable
define dso_local noundef ptr @_ZN4absl13base_internal30CurrentThreadIdentityIfPresentEv() local_unnamed_addr #4 {
  %1 = load atomic i8, ptr @_ZN4absl13base_internal12_GLOBAL__N_123pthread_key_initializedE.0 acquire, align 1
  %2 = trunc i8 %1 to i1
  br i1 %2, label %3, label %6

3:                                                ; preds = %0
  %4 = load i32, ptr @_ZN4absl13base_internal12_GLOBAL__N_127thread_identity_pthread_keyE, align 4, !tbaa !5
  %5 = tail call ptr @pthread_getspecific(i32 noundef %4) #6
  br label %6

6:                                                ; preds = %0, %3
  %.0 = phi ptr [ %5, %3 ], [ null, %0 ]
  ret ptr %.0
}